; Function Attrs: nounwind uwtable
define hidden i32 @mbedtls_ccm_set_lengths(ptr noundef %0, i64 noundef %1, i64 noundef %2, i64 noundef %3) local_unnamed_addr #2 {
  %5 = alloca i64, align 8
  %6 = icmp eq i64 %3, 2
  %7 = icmp ugt i64 %3, 16
  %or.cond.not20.not24 = or i1 %6, %7
  %8 = and i64 %3, 1
  %.not = icmp ne i64 %8, 0
  %or.cond16.not21 = or i1 %or.cond.not20.not24, %.not
  %9 = icmp ugt i64 %1, 65279
  %or.cond17 = or i1 %9, %or.cond16.not21
  br i1 %or.cond17, label %53, label %10

10:                                               ; preds = %4
  %11 = getelementptr inbounds nuw i8, ptr %0, i64 32
  store i64 %2, ptr %11, align 8, !tbaa !17
  %12 = getelementptr inbounds nuw i8, ptr %0, i64 40
  store i64 %1, ptr %12, align 8, !tbaa !18
  %13 = getelementptr inbounds nuw i8, ptr %0, i64 48
  store i64 %3, ptr %13, align 8, !tbaa !16
  %14 = getelementptr inbounds nuw i8, ptr %0, i64 56
  store i64 0, ptr %14, align 8, !tbaa !21
  %15 = getelementptr inbounds nuw i8, ptr %0, i64 168
  %16 = load i32, ptr %15, align 8, !tbaa !15
  %17 = or i32 %16, 2
  store i32 %17, ptr %15, align 8, !tbaa !15
  call void @llvm.lifetime.start.p0(i64 8, ptr nonnull %5) #10
  %18 = and i32 %17, 3
  %or.cond.not.i = icmp eq i32 %18, 3
  br i1 %or.cond.not.i, label %19, label %ccm_calculate_first_block_if_ready.exit

19:                                               ; preds = %10
  %20 = icmp eq i64 %3, 0
  br i1 %20, label %21, label %._crit_edge39.i

21:                                               ; preds = %19
  %22 = getelementptr inbounds nuw i8, ptr %0, i64 68
  %23 = load i32, ptr %22, align 4, !tbaa !3
  %24 = and i32 %23, -2
  %switch.i = icmp eq i32 %24, 2
  br i1 %switch.i, label %25, label %ccm_calculate_first_block_if_ready.exit

25:                                               ; preds = %21
  store i64 0, ptr %11, align 8, !tbaa !17
  br label %._crit_edge39.i

._crit_edge39.i:                                  ; preds = %19, %25
  %26 = phi i64 [ 0, %25 ], [ %2, %19 ]
  %.not34.i = icmp eq i64 %1, 0
  %27 = select i1 %.not34.i, i8 0, i8 64
  %28 = load i8, ptr %0, align 8, !tbaa !14
  %.tr.i = trunc nuw i64 %3 to i8
  %29 = shl nuw nsw i8 %.tr.i, 2
  %30 = add nsw i8 %29, -8
  %31 = getelementptr inbounds nuw i8, ptr %0, i64 64
  %32 = load i32, ptr %31, align 8, !tbaa !13
  %33 = trunc i32 %32 to i8
  %34 = add i8 %33, -1
  %35 = or i8 %30, %27
  %36 = or i8 %35, %28
  %37 = or i8 %36, %34
  store i8 %37, ptr %0, align 8, !tbaa !14
  %.not.i = icmp eq i32 %32, 0
  br i1 %.not.i, label %._crit_edge.i, label %.lr.ph.i

.lr.ph.i:                                         ; preds = %._crit_edge39.i, %.lr.ph.i
  %38 = phi i32 [ %45, %.lr.ph.i ], [ 0, %._crit_edge39.i ]
  %.038.i = phi i64 [ %44, %.lr.ph.i ], [ %26, %._crit_edge39.i ]
  %.02837.i = phi i8 [ %43, %.lr.ph.i ], [ 0, %._crit_edge39.i ]
  %39 = trunc i64 %.038.i to i8
  %40 = sub nsw i32 15, %38
  %41 = sext i32 %40 to i64
  %42 = getelementptr inbounds [16 x i8], ptr %0, i64 0, i64 %41
  store i8 %39, ptr %42, align 1, !tbaa !14
  %43 = add i8 %.02837.i, 1
  %44 = lshr i64 %.038.i, 8
  %45 = zext i8 %43 to i32
  %46 = load i32, ptr %31, align 8, !tbaa !13
  %47 = icmp ugt i32 %46, %45
  br i1 %47, label %.lr.ph.i, label %._crit_edge.i, !llvm.loop !19

._crit_edge.i:                                    ; preds = %.lr.ph.i, %._crit_edge39.i
  %.0.lcssa.i = phi i64 [ %26, %._crit_edge39.i ], [ %44, %.lr.ph.i ]
  %.not35.i = icmp eq i64 %.0.lcssa.i, 0
  br i1 %.not35.i, label %48, label %.sink.split.i

48:                                               ; preds = %._crit_edge.i
  %49 = getelementptr inbounds nuw i8, ptr %0, i64 72
  %50 = call i32 @mbedtls_cipher_update(ptr noundef nonnull %49, ptr noundef nonnull %0, i64 noundef 16, ptr noundef nonnull %0, ptr noundef nonnull %5) #10
  %.not36.i = icmp eq i32 %50, 0
  br i1 %.not36.i, label %ccm_calculate_first_block_if_ready.exit, label %.sink.split.i

.sink.split.i:                                    ; preds = %48, %._crit_edge.i
  %.029.ph.i = phi i32 [ -13, %._crit_edge.i ], [ %50, %48 ]
  %51 = load i32, ptr %15, align 8, !tbaa !15
  %52 = or i32 %51, 16
  store i32 %52, ptr %15, align 8, !tbaa !15
  br label %ccm_calculate_first_block_if_ready.exit

ccm_calculate_first_block_if_ready.exit:          ; preds = %10, %21, %48, %.sink.split.i
  %.029.i = phi i32 [ 0, %10 ], [ -13, %21 ], [ 0, %48 ], [ %.029.ph.i, %.sink.split.i ]
  call void @llvm.lifetime.end.p0(i64 8, ptr nonnull %5) #10
  br label %53

53:                                               ; preds = %4, %ccm_calculate_first_block_if_ready.exit
  %.0 = phi i32 [ %.029.i, %ccm_calculate_first_block_if_ready.exit ], [ -13, %4 ]
  ret i32 %.0
}